target datalayout = "e-m:e-p270:32:32-p271:32:32-p272:64:64-i64:64-i128:128-f80:128-n8:16:32:64-S128"
target triple = "x86_64-pc-linux-gnu"

@H5_init_g = external global i8, align 1
@H5_libterm_g = external global i8, align 1
@.str = private unnamed_addr constant [102 x i8] c"generated/home/dtcxzyw/WorkSpace/Projects/compilers/llvm-opt-benchmark/bench/hdf5/hdf5/src/H5system.c\00", align 1
@H5E_BADVALUE_g = external global i64, align 8
@.str.4 = private unnamed_addr constant [2 x i8] c"/\00", align 1
@H5E_RESOURCE_g = external global i64, align 8
@H5E_ARGS_g = external global i64, align 8
@.str.8 = private unnamed_addr constant [19 x i8] c"path can't be NULL\00", align 1
@.str.10 = private unnamed_addr constant [2 x i8] c".\00", align 1
@H5E_CANTALLOC_g = external global i64, align 8
@__func__.H5_basename = private unnamed_addr constant [12 x i8] c"H5_basename\00", align 1
@.str.12 = private unnamed_addr constant [23 x i8] c"basename can't be NULL\00", align 1
@.str.13 = private unnamed_addr constant [35 x i8] c"can't allocate buffer for basename\00", align 1

; Function Attrs: nounwind uwtable
define i32 @H5_basename(ptr noundef %0, ptr noundef %1) #0 {
  %3 = alloca ptr, align 8
  %4 = alloca ptr, align 8
  %5 = alloca ptr, align 8
  %6 = alloca ptr, align 8
  %7 = alloca i32, align 4
  %8 = alloca i8, align 1
  %9 = alloca ptr, align 8
  %10 = alloca i64, align 8
  store ptr %0, ptr %3, align 8, !tbaa !26
  store ptr %1, ptr %4, align 8, !tbaa !27
  call void @llvm.lifetime.start.p0(i64 8, ptr %5) #9
  call void @llvm.lifetime.start.p0(i64 8, ptr %6) #9
  store ptr null, ptr %6, align 8, !tbaa !26
  call void @llvm.lifetime.start.p0(i64 4, ptr %7) #9
  store i32 0, ptr %7, align 4, !tbaa !3
  call void @llvm.lifetime.start.p0(i64 1, ptr %8) #9
  store i8 0, ptr %8, align 1, !tbaa !19
  %11 = load i8, ptr @H5_init_g, align 1, !tbaa !19, !range !21, !noundef !22
  %12 = trunc i8 %11 to i1
  br i1 %12, label %17, label %13

13:                                               ; preds = %2
  %14 = load i8, ptr @H5_libterm_g, align 1, !tbaa !19, !range !21, !noundef !22
  %15 = trunc i8 %14 to i1
  %16 = xor i1 %15, true
  br label %17

17:                                               ; preds = %13, %2
  %18 = phi i1 [ true, %2 ], [ %16, %13 ]
  %19 = xor i1 %18, true
  %20 = xor i1 %19, true
  %21 = zext i1 %20 to i32
  %22 = sext i32 %21 to i64
  %23 = call i64 @llvm.expect.i64(i64 %22, i64 1)
  %24 = icmp ne i64 %23, 0
  br i1 %24, label %25, label %198

25:                                               ; preds = %17
  %26 = load ptr, ptr %3, align 8, !tbaa !26
  %27 = icmp ne ptr %26, null
  br i1 %27, label %47, label %28

28:                                               ; preds = %25
  br label %29

29:                                               ; preds = %28
  br label %30

30:                                               ; preds = %29
  br label %31

31:                                               ; preds = %30
  %32 = load i64, ptr @H5E_ARGS_g, align 8, !tbaa !18
  %33 = load i64, ptr @H5E_BADVALUE_g, align 8, !tbaa !18
  %34 = call i32 (ptr, ptr, i32, i64, i64, ptr, ...) @H5E_printf_stack(ptr noundef @.str, ptr noundef @__func__.H5_basename, i32 noundef 1106, i64 noundef %32, i64 noundef %33, ptr noundef @.str.8)
  br label %35

35:                                               ; preds = %31
  br label %36

36:                                               ; preds = %35
  store i8 1, ptr %8, align 1, !tbaa !19
  %37 = load i8, ptr %8, align 1, !tbaa !19, !range !21, !noundef !22
  %38 = trunc i8 %37 to i1
  %39 = zext i1 %38 to i8
  store i8 %39, ptr %8, align 1, !tbaa !19
  br label %40

40:                                               ; preds = %36
  br label %41

41:                                               ; preds = %40
  br label %42

42:                                               ; preds = %41
  store i32 -1, ptr %7, align 4, !tbaa !3
  br label %187

43:                                               ; No predecessors!
  br label %44

44:                                               ; preds = %43
  br label %45

45:                                               ; preds = %44
  br label %46

46:                                               ; preds = %45
  br label %47

47:                                               ; preds = %46, %25
  %48 = load ptr, ptr %4, align 8, !tbaa !27
  %49 = icmp ne ptr %48, null
  br i1 %49, label %69, label %50

50:                                               ; preds = %47
  br label %51

51:                                               ; preds = %50
  br label %52

52:                                               ; preds = %51
  br label %53

53:                                               ; preds = %52
  %54 = load i64, ptr @H5E_ARGS_g, align 8, !tbaa !18
  %55 = load i64, ptr @H5E_BADVALUE_g, align 8, !tbaa !18
  %56 = call i32 (ptr, ptr, i32, i64, i64, ptr, ...) @H5E_printf_stack(ptr noundef @.str, ptr noundef @__func__.H5_basename, i32 noundef 1108, i64 noundef %54, i64 noundef %55, ptr noundef @.str.12)
  br label %57

57:                                               ; preds = %53
  br label %58

58:                                               ; preds = %57
  store i8 1, ptr %8, align 1, !tbaa !19
  %59 = load i8, ptr %8, align 1, !tbaa !19, !range !21, !noundef !22
  %60 = trunc i8 %59 to i1
  %61 = zext i1 %60 to i8
  store i8 %61, ptr %8, align 1, !tbaa !19
  br label %62

62:                                               ; preds = %58
  br label %63

63:                                               ; preds = %62
  br label %64

64:                                               ; preds = %63
  store i32 -1, ptr %7, align 4, !tbaa !3
  br label %187

65:                                               ; No predecessors!
  br label %66

66:                                               ; preds = %65
  br label %67

67:                                               ; preds = %66
  br label %68

68:                                               ; preds = %67
  br label %69

69:                                               ; preds = %68, %47
  %70 = load ptr, ptr %3, align 8, !tbaa !26
  %71 = call ptr @strrchr(ptr noundef %70, i32 noundef 47) #11
  store ptr %71, ptr %5, align 8, !tbaa !26
  %72 = icmp eq ptr null, %71
  br i1 %72, label %73, label %84

73:                                               ; preds = %69
  %74 = load ptr, ptr %3, align 8, !tbaa !26
  %75 = load i8, ptr %74, align 1, !tbaa !29
  %76 = sext i8 %75 to i32
  %77 = icmp eq i32 %76, 0
  br i1 %77, label %78, label %80

78:                                               ; preds = %73
  %79 = call noalias ptr @H5MM_strdup(ptr noundef @.str.10)
  store ptr %79, ptr %6, align 8, !tbaa !26
  br label %83

80:                                               ; preds = %73
  %81 = load ptr, ptr %3, align 8, !tbaa !26
  %82 = call noalias ptr @H5MM_strdup(ptr noundef %81)
  store ptr %82, ptr %6, align 8, !tbaa !26
  br label %83

83:                                               ; preds = %80, %78
  br label %162

84:                                               ; preds = %69
  %85 = load ptr, ptr %5, align 8, !tbaa !26
  %86 = load ptr, ptr %3, align 8, !tbaa !26
  %87 = icmp eq ptr %85, %86
  br i1 %87, label %88, label %101

88:                                               ; preds = %84
  %89 = load ptr, ptr %5, align 8, !tbaa !26
  %90 = getelementptr inbounds i8, ptr %89, i64 1
  %91 = load i8, ptr %90, align 1, !tbaa !29
  %92 = sext i8 %91 to i32
  %93 = icmp eq i32 %92, 0
  br i1 %93, label %94, label %96

94:                                               ; preds = %88
  %95 = call noalias ptr @H5MM_strdup(ptr noundef @.str.4)
  store ptr %95, ptr %6, align 8, !tbaa !26
  br label %100

96:                                               ; preds = %88
  %97 = load ptr, ptr %5, align 8, !tbaa !26
  %98 = getelementptr inbounds i8, ptr %97, i64 1
  %99 = call noalias ptr @H5MM_strdup(ptr noundef %98)
  store ptr %99, ptr %6, align 8, !tbaa !26
  br label %100

100:                                              ; preds = %96, %94
  br label %161

101:                                              ; preds = %84
  %102 = load ptr, ptr %5, align 8, !tbaa !26
  %103 = getelementptr inbounds i8, ptr %102, i64 1
  %104 = load i8, ptr %103, align 1, !tbaa !29
  %105 = sext i8 %104 to i32
  %106 = icmp ne i32 %105, 0
  br i1 %106, label %107, label %111

107:                                              ; preds = %101
  %108 = load ptr, ptr %5, align 8, !tbaa !26
  %109 = getelementptr inbounds i8, ptr %108, i64 1
  %110 = call noalias ptr @H5MM_strdup(ptr noundef %109)
  store ptr %110, ptr %6, align 8, !tbaa !26
  br label %160

111:                                              ; preds = %101
  br label %112

112:                                              ; preds = %124, %111
  %113 = load ptr, ptr %5, align 8, !tbaa !26
  %114 = load ptr, ptr %3, align 8, !tbaa !26
  %115 = icmp ne ptr %113, %114
  br i1 %115, label %116, label %122

116:                                              ; preds = %112
  %117 = load ptr, ptr %5, align 8, !tbaa !26
  %118 = getelementptr inbounds i8, ptr %117, i64 -1
  %119 = load i8, ptr %118, align 1, !tbaa !29
  %120 = sext i8 %119 to i32
  %121 = icmp eq i32 %120, 47
  br label %122

122:                                              ; preds = %116, %112
  %123 = phi i1 [ false, %112 ], [ %121, %116 ]
  br i1 %123, label %124, label %127

124:                                              ; preds = %122
  %125 = load ptr, ptr %5, align 8, !tbaa !26
  %126 = getelementptr inbounds i8, ptr %125, i32 -1
  store ptr %126, ptr %5, align 8, !tbaa !26
  br label %112, !llvm.loop !38

127:                                              ; preds = %122
  %128 = load ptr, ptr %5, align 8, !tbaa !26
  %129 = load ptr, ptr %3, align 8, !tbaa !26
  %130 = icmp eq ptr %128, %129
  br i1 %130, label %131, label %133

131:                                              ; preds = %127
  %132 = call noalias ptr @H5MM_strdup(ptr noundef @.str.4)
  store ptr %132, ptr %6, align 8, !tbaa !26
  br label %159

133:                                              ; preds = %127
  call void @llvm.lifetime.start.p0(i64 8, ptr %9) #9
  %134 = load ptr, ptr %5, align 8, !tbaa !26
  store ptr %134, ptr %9, align 8, !tbaa !26
  call void @llvm.lifetime.start.p0(i64 8, ptr %10) #9
  br label %135

135:                                              ; preds = %147, %133
  %136 = load ptr, ptr %9, align 8, !tbaa !26
  %137 = load ptr, ptr %3, align 8, !tbaa !26
  %138 = icmp ne ptr %136, %137
  br i1 %138, label %139, label %145

139:                                              ; preds = %135
  %140 = load ptr, ptr %9, align 8, !tbaa !26
  %141 = getelementptr inbounds i8, ptr %140, i64 -1
  %142 = load i8, ptr %141, align 1, !tbaa !29
  %143 = sext i8 %142 to i32
  %144 = icmp ne i32 %143, 47
  br label %145

145:                                              ; preds = %139, %135
  %146 = phi i1 [ false, %135 ], [ %144, %139 ]
  br i1 %146, label %147, label %150

147:                                              ; preds = %145
  %148 = load ptr, ptr %9, align 8, !tbaa !26
  %149 = getelementptr inbounds i8, ptr %148, i32 -1
  store ptr %149, ptr %9, align 8, !tbaa !26
  br label %135, !llvm.loop !39

150:                                              ; preds = %145
  %151 = load ptr, ptr %5, align 8, !tbaa !26
  %152 = load ptr, ptr %9, align 8, !tbaa !26
  %153 = ptrtoint ptr %151 to i64
  %154 = ptrtoint ptr %152 to i64
  %155 = sub i64 %153, %154
  store i64 %155, ptr %10, align 8, !tbaa !18
  %156 = load ptr, ptr %9, align 8, !tbaa !26
  %157 = load i64, ptr %10, align 8, !tbaa !18
  %158 = call noalias ptr @H5MM_strndup(ptr noundef %156, i64 noundef %157)
  store ptr %158, ptr %6, align 8, !tbaa !26
  call void @llvm.lifetime.end.p0(i64 8, ptr %10) #9
  call void @llvm.lifetime.end.p0(i64 8, ptr %9) #9
  br label %159

159:                                              ; preds = %150, %131
  br label %160

160:                                              ; preds = %159, %107
  br label %161

161:                                              ; preds = %160, %100
  br label %162

162:                                              ; preds = %161, %83
  %163 = load ptr, ptr %6, align 8, !tbaa !26
  %164 = icmp eq ptr null, %163
  br i1 %164, label %165, label %184

165:                                              ; preds = %162
  br label %166

166:                                              ; preds = %165
  br label %167

167:                                              ; preds = %166
  br label %168

168:                                              ; preds = %167
  %169 = load i64, ptr @H5E_RESOURCE_g, align 8, !tbaa !18
  %170 = load i64, ptr @H5E_CANTALLOC_g, align 8, !tbaa !18
  %171 = call i32 (ptr, ptr, i32, i64, i64, ptr, ...) @H5E_printf_stack(ptr noundef @.str, ptr noundef @__func__.H5_basename, i32 noundef 1164, i64 noundef %169, i64 noundef %170, ptr noundef @.str.13)
  br label %172

172:                                              ; preds = %168
  br label %173

173:                                              ; preds = %172
  store i8 1, ptr %8, align 1, !tbaa !19
  %174 = load i8, ptr %8, align 1, !tbaa !19, !range !21, !noundef !22
  %175 = trunc i8 %174 to i1
  %176 = zext i1 %175 to i8
  store i8 %176, ptr %8, align 1, !tbaa !19
  br label %177

177:                                              ; preds = %173
  br label %178

178:                                              ; preds = %177
  br label %179

179:                                              ; preds = %178
  store i32 -1, ptr %7, align 4, !tbaa !3
  br label %187

180:                                              ; No predecessors!
  br label %181

181:                                              ; preds = %180
  br label %182

182:                                              ; preds = %181
  br label %183

183:                                              ; preds = %182
  br label %184

184:                                              ; preds = %183, %162
  %185 = load ptr, ptr %6, align 8, !tbaa !26
  %186 = load ptr, ptr %4, align 8, !tbaa !27
  store ptr %185, ptr %186, align 8, !tbaa !26
  br label %187

187:                                              ; preds = %184, %179, %64, %42
  %188 = load i32, ptr %7, align 4, !tbaa !3
  %189 = icmp eq i32 -1, %188
  br i1 %189, label %190, label %197

190:                                              ; preds = %187
  %191 = load ptr, ptr %6, align 8, !tbaa !26
  call void @free(ptr noundef %191) #9
  %192 = load ptr, ptr %4, align 8, !tbaa !27
  %193 = icmp ne ptr %192, null
  br i1 %193, label %194, label %196

194:                                              ; preds = %190
  %195 = load ptr, ptr %4, align 8, !tbaa !27
  store ptr null, ptr %195, align 8, !tbaa !26
  br label %196

196:                                              ; preds = %194, %190
  br label %197

197:                                              ; preds = %196, %187
  br label %198

198:                                              ; preds = %197, %17
  %199 = load i32, ptr %7, align 4, !tbaa !3
  call void @llvm.lifetime.end.p0(i64 1, ptr %8) #9
  call void @llvm.lifetime.end.p0(i64 4, ptr %7) #9
  call void @llvm.lifetime.end.p0(i64 8, ptr %6) #9
  call void @llvm.lifetime.end.p0(i64 8, ptr %5) #9
  ret i32 %199
}