; Function Attrs: nounwind uwtable
define range(i32 -1, 1) i32 @H5_basename(ptr noundef %0, ptr noundef writeonly captures(address_is_null) %1) local_unnamed_addr #0 {
  %3 = ptrtoint ptr %0 to i64
  %4 = load i8, ptr @H5_init_g, align 1, !tbaa !11, !range !13, !noundef !14
  %5 = trunc nuw i8 %4 to i1
  %6 = load i8, ptr @H5_libterm_g, align 1, !range !13
  %7 = trunc nuw i8 %6 to i1
  %8 = xor i1 %7, true
  %9 = select i1 %5, i1 true, i1 %8
  br i1 %9, label %10, label %66, !prof !15

10:                                               ; preds = %2
  %.not = icmp eq ptr %0, null
  br i1 %.not, label %11, label %15

11:                                               ; preds = %10
  %12 = load i64, ptr @H5E_ARGS_g, align 8, !tbaa !16
  %13 = load i64, ptr @H5E_BADVALUE_g, align 8, !tbaa !16
  %14 = tail call i32 (ptr, ptr, i32, i64, i64, ptr, ...) @H5E_printf_stack(ptr noundef nonnull @.str, ptr noundef nonnull @__func__.H5_basename, i32 noundef 1106, i64 noundef %12, i64 noundef %13, ptr noundef nonnull @.str.8) #15
  br label %64

15:                                               ; preds = %10
  %.not46 = icmp eq ptr %1, null
  br i1 %.not46, label %.thread54, label %19

.thread54:                                        ; preds = %15
  %16 = load i64, ptr @H5E_ARGS_g, align 8, !tbaa !16
  %17 = load i64, ptr @H5E_BADVALUE_g, align 8, !tbaa !16
  %18 = tail call i32 (ptr, ptr, i32, i64, i64, ptr, ...) @H5E_printf_stack(ptr noundef nonnull @.str, ptr noundef nonnull @__func__.H5_basename, i32 noundef 1108, i64 noundef %16, i64 noundef %17, ptr noundef nonnull @.str.12) #15
  br label %66

19:                                               ; preds = %15
  %20 = tail call ptr @strrchr(ptr noundef nonnull dereferenceable(1) %0, i32 noundef 47) #17
  %21 = ptrtoint ptr %20 to i64
  %22 = icmp eq ptr %20, null
  br i1 %22, label %23, label %30

23:                                               ; preds = %19
  %24 = load i8, ptr %0, align 1, !tbaa !22
  %25 = icmp eq i8 %24, 0
  br i1 %25, label %26, label %28

26:                                               ; preds = %23
  %27 = tail call noalias ptr @H5MM_strdup(ptr noundef nonnull @.str.10) #15
  br label %57

28:                                               ; preds = %23
  %29 = tail call noalias ptr @H5MM_strdup(ptr noundef nonnull %0) #15
  br label %57

30:                                               ; preds = %19
  %31 = icmp eq ptr %20, %0
  %32 = getelementptr inbounds nuw i8, ptr %20, i64 1
  %33 = load i8, ptr %32, align 1, !tbaa !22
  %34 = icmp eq i8 %33, 0
  br i1 %31, label %35, label %40

35:                                               ; preds = %30
  br i1 %34, label %36, label %38

36:                                               ; preds = %35
  %37 = tail call noalias ptr @H5MM_strdup(ptr noundef nonnull @.str.4) #15
  br label %57

38:                                               ; preds = %35
  %39 = tail call noalias ptr @H5MM_strdup(ptr noundef nonnull %32) #15
  br label %57

40:                                               ; preds = %30
  br i1 %34, label %.preheader, label %41

41:                                               ; preds = %40
  %42 = tail call noalias ptr @H5MM_strdup(ptr noundef nonnull %32) #15
  br label %57

.preheader:                                       ; preds = %40, %43
  %.0 = phi ptr [ %44, %43 ], [ %20, %40 ]
  %.not48 = icmp eq ptr %.0, %0
  br i1 %.not48, label %48, label %43

43:                                               ; preds = %.preheader
  %44 = getelementptr inbounds i8, ptr %.0, i64 -1
  %45 = load i8, ptr %44, align 1, !tbaa !22
  %46 = icmp eq i8 %45, 47
  br i1 %46, label %.preheader, label %.critedge.preheader, !llvm.loop !32

.critedge.preheader:                              ; preds = %43
  %47 = sub i64 %3, %21
  %scevgep = getelementptr i8, ptr %20, i64 %47
  br label %.critedge

48:                                               ; preds = %.preheader
  %49 = tail call noalias ptr @H5MM_strdup(ptr noundef nonnull @.str.4) #15
  br label %57

.critedge:                                        ; preds = %.critedge.preheader, %50
  %.038 = phi ptr [ %51, %50 ], [ %.0, %.critedge.preheader ]
  %.not49 = icmp eq ptr %.038, %0
  br i1 %.not49, label %.critedge2, label %50

50:                                               ; preds = %.critedge
  %51 = getelementptr inbounds i8, ptr %.038, i64 -1
  %52 = load i8, ptr %51, align 1, !tbaa !22
  %.not50 = icmp eq i8 %52, 47
  br i1 %.not50, label %.critedge2, label %.critedge, !llvm.loop !33

.critedge2:                                       ; preds = %.critedge, %50
  %.038.lcssa = phi ptr [ %scevgep, %.critedge ], [ %.038, %50 ]
  %53 = ptrtoint ptr %.0 to i64
  %54 = ptrtoint ptr %.038.lcssa to i64
  %55 = sub i64 %53, %54
  %56 = tail call noalias ptr @H5MM_strndup(ptr noundef nonnull %.038.lcssa, i64 noundef %55) #15
  br label %57

57:                                               ; preds = %38, %36, %48, %.critedge2, %41, %26, %28
  %.141 = phi ptr [ %27, %26 ], [ %29, %28 ], [ %37, %36 ], [ %39, %38 ], [ %42, %41 ], [ %49, %48 ], [ %56, %.critedge2 ]
  %58 = icmp eq ptr %.141, null
  br i1 %58, label %59, label %63

59:                                               ; preds = %57
  %60 = load i64, ptr @H5E_RESOURCE_g, align 8, !tbaa !16
  %61 = load i64, ptr @H5E_CANTALLOC_g, align 8, !tbaa !16
  %62 = tail call i32 (ptr, ptr, i32, i64, i64, ptr, ...) @H5E_printf_stack(ptr noundef nonnull @.str, ptr noundef nonnull @__func__.H5_basename, i32 noundef 1164, i64 noundef %60, i64 noundef %61, ptr noundef nonnull @.str.13) #15
  br label %64

63:                                               ; preds = %57
  store ptr %.141, ptr %1, align 8, !tbaa !21
  br label %66

64:                                               ; preds = %59, %11
  %.not51 = icmp eq ptr %1, null
  br i1 %.not51, label %66, label %65

65:                                               ; preds = %64
  store ptr null, ptr %1, align 8, !tbaa !21
  br label %66

66:                                               ; preds = %.thread54, %63, %65, %64, %2
  %.039 = phi i32 [ -1, %65 ], [ -1, %64 ], [ 0, %63 ], [ 0, %2 ], [ -1, %.thread54 ]
  ret i32 %.039
}